target datalayout = "e-m:e-p270:32:32-p271:32:32-p272:64:64-i64:64-i128:128-f80:128-n8:16:32:64-S128"
target triple = "x86_64-pc-linux-gnu"

%"struct.std::_Rb_tree_header" = type { %"struct.std::_Rb_tree_node_base", i64 }
%"struct.std::_Rb_tree_node_base" = type { i32, ptr, ptr, ptr }
%class.anon = type { i8 }
%"class.__gnu_cxx::__normal_iterator" = type { ptr }
%"class.gmx::KeyValueTreeValue" = type { %"class.gmx::Any" }
%"class.gmx::Any" = type { %"class.std::unique_ptr" }
%"class.std::unique_ptr" = type { %"struct.std::__uniq_ptr_data" }
%"struct.std::__uniq_ptr_data" = type { %"class.std::__uniq_ptr_impl" }
%"class.std::__uniq_ptr_impl" = type { %"class.std::tuple" }
%"class.std::tuple" = type { %"struct.std::_Tuple_impl" }
%"struct.std::_Tuple_impl" = type { %"struct.std::_Head_base.22" }
%"struct.std::_Head_base.22" = type { ptr }
%"class.std::__cxx11::basic_string" = type { %"struct.std::__cxx11::basic_string<char>::_Alloc_hider", i64, %union.anon }
%"struct.std::__cxx11::basic_string<char>::_Alloc_hider" = type { ptr }
%union.anon = type { i64, [8 x i8] }
%"class.gmx::KeyValueTreeObject" = type { %"class.std::map.12", %"class.std::vector" }
%"class.std::map.12" = type { %"class.std::_Rb_tree.13" }
%"class.std::_Rb_tree.13" = type { %"struct.std::_Rb_tree<std::__cxx11::basic_string<char>, std::pair<const std::__cxx11::basic_string<char>, gmx::KeyValueTreeValue>, std::_Select1st<std::pair<const std::__cxx11::basic_string<char>, gmx::KeyValueTreeValue>>, std::less<std::__cxx11::basic_string<char>>>::_Rb_tree_impl" }
%"struct.std::_Rb_tree<std::__cxx11::basic_string<char>, std::pair<const std::__cxx11::basic_string<char>, gmx::KeyValueTreeValue>, std::_Select1st<std::pair<const std::__cxx11::basic_string<char>, gmx::KeyValueTreeValue>>, std::less<std::__cxx11::basic_string<char>>>::_Rb_tree_impl" = type { [8 x i8], %"struct.std::_Rb_tree_header" }
%"class.std::vector" = type { %"struct.std::_Vector_base" }
%"struct.std::_Vector_base" = type { %"struct.std::_Vector_base<gmx::KeyValueTreeProperty, std::allocator<gmx::KeyValueTreeProperty>>::_Vector_impl" }
%"struct.std::_Vector_base<gmx::KeyValueTreeProperty, std::allocator<gmx::KeyValueTreeProperty>>::_Vector_impl" = type { %"struct.std::_Vector_base<gmx::KeyValueTreeProperty, std::allocator<gmx::KeyValueTreeProperty>>::_Vector_impl_data" }
%"struct.std::_Vector_base<gmx::KeyValueTreeProperty, std::allocator<gmx::KeyValueTreeProperty>>::_Vector_impl_data" = type { ptr, ptr, ptr }
%"class.gmx::KeyValueTreeProperty" = type { %"struct.std::_Rb_tree_const_iterator" }
%"struct.std::_Rb_tree_const_iterator" = type { ptr }
%"struct.std::pair.43" = type { %"class.std::__cxx11::basic_string", %"class.gmx::KeyValueTreeValue" }
%"struct.std::_Rb_tree_node.45" = type { %"struct.std::_Rb_tree_node_base", %"struct.__gnu_cxx::__aligned_membuf.46" }
%"struct.__gnu_cxx::__aligned_membuf.46" = type { [40 x i8] }

@.str = private unnamed_addr constant [23 x i8] c"!serializer->reading()\00", align 1
@.str.2 = private unnamed_addr constant [31 x i8] c"Incorrect serializer direction\00", align 1
@"__PRETTY_FUNCTION__._ZZN3gmx21serializeKeyValueTreeERKNS_18KeyValueTreeObjectEPNS_11ISerializerEENK3$_0clEv" = private unnamed_addr constant [114 x i8] c"auto gmx::serializeKeyValueTree(const KeyValueTreeObject &, ISerializer *)::(anonymous class)::operator()() const\00", align 1
@.str.3 = private unnamed_addr constant [140 x i8] c"generated/home/dtcxzyw/WorkSpace/Projects/compilers/llvm-opt-benchmark/bench/gromacs/gromacs/src/gromacs/utility/keyvaluetreeserializer.cpp\00", align 1

; Function Attrs: mustprogress nounwind uwtable
define linkonce_odr noundef ptr @_ZNK9__gnu_cxx16__aligned_membufISt4pairIKNSt7__cxx1112basic_stringIcSt11char_traitsIcESaIcEEEN3gmx17KeyValueTreeValueEEE7_M_addrEv(ptr noundef nonnull align 8 dereferenceable(40) %0) #1 comdat align 2 {
  %2 = alloca ptr, align 8
  store ptr %0, ptr %2, align 8, !tbaa !211
  %3 = load ptr, ptr %2, align 8
  %4 = getelementptr inbounds nuw %"struct.__gnu_cxx::__aligned_membuf.46", ptr %3, i32 0, i32 0
  ret ptr %4
}

; Function Attrs: mustprogress nounwind uwtable
define linkonce_odr noundef ptr @_ZNK9__gnu_cxx16__aligned_membufISt4pairIKNSt7__cxx1112basic_stringIcSt11char_traitsIcESaIcEEEN3gmx17KeyValueTreeValueEEE6_M_ptrEv(ptr noundef nonnull align 8 dereferenceable(40) %0) #1 comdat align 2 {
  %2 = alloca ptr, align 8
  store ptr %0, ptr %2, align 8, !tbaa !211
  %3 = load ptr, ptr %2, align 8
  %4 = call noundef ptr @_ZNK9__gnu_cxx16__aligned_membufISt4pairIKNSt7__cxx1112basic_stringIcSt11char_traitsIcESaIcEEEN3gmx17KeyValueTreeValueEEE7_M_addrEv(ptr noundef nonnull align 8 dereferenceable(40) %3) #2
  ret ptr %4
}

; Function Attrs: mustprogress nounwind uwtable
define linkonce_odr noundef ptr @_ZNKSt13_Rb_tree_nodeISt4pairIKNSt7__cxx1112basic_stringIcSt11char_traitsIcESaIcEEEN3gmx17KeyValueTreeValueEEE9_M_valptrEv(ptr noundef nonnull align 8 dereferenceable(72) %0) #1 comdat align 2 {
  %2 = alloca ptr, align 8
  store ptr %0, ptr %2, align 8, !tbaa !204
  %3 = load ptr, ptr %2, align 8
  %4 = getelementptr inbounds nuw %"struct.std::_Rb_tree_node.45", ptr %3, i32 0, i32 1
  %5 = call noundef ptr @_ZNK9__gnu_cxx16__aligned_membufISt4pairIKNSt7__cxx1112basic_stringIcSt11char_traitsIcESaIcEEEN3gmx17KeyValueTreeValueEEE6_M_ptrEv(ptr noundef nonnull align 8 dereferenceable(40) %4) #2
  ret ptr %5
}

; Function Attrs: mustprogress nounwind uwtable
define linkonce_odr noundef ptr @_ZNKSt23_Rb_tree_const_iteratorISt4pairIKNSt7__cxx1112basic_stringIcSt11char_traitsIcESaIcEEEN3gmx17KeyValueTreeValueEEEptEv(ptr noundef nonnull align 8 dereferenceable(8) %0) #1 comdat align 2 {
  %2 = alloca ptr, align 8
  store ptr %0, ptr %2, align 8, !tbaa !186
  %3 = load ptr, ptr %2, align 8
  %4 = getelementptr inbounds nuw %"struct.std::_Rb_tree_const_iterator", ptr %3, i32 0, i32 0
  %5 = load ptr, ptr %4, align 8, !tbaa !192
  %6 = call noundef ptr @_ZNKSt13_Rb_tree_nodeISt4pairIKNSt7__cxx1112basic_stringIcSt11char_traitsIcESaIcEEEN3gmx17KeyValueTreeValueEEE9_M_valptrEv(ptr noundef nonnull align 8 dereferenceable(72) %5)
  ret ptr %6
}

; Function Attrs: mustprogress nounwind uwtable
define linkonce_odr noundef nonnull align 8 dereferenceable(8) ptr @_ZNK9__gnu_cxx17__normal_iteratorIPKN3gmx20KeyValueTreePropertyESt6vectorIS2_SaIS2_EEE4baseEv(ptr noundef nonnull align 8 dereferenceable(8) %0) #1 comdat align 2 {
  %2 = alloca ptr, align 8
  store ptr %0, ptr %2, align 8, !tbaa !178
  %3 = load ptr, ptr %2, align 8
  %4 = getelementptr inbounds nuw %"class.__gnu_cxx::__normal_iterator", ptr %3, i32 0, i32 0
  ret ptr %4
}

; Function Attrs: mustprogress nounwind uwtable
define linkonce_odr void @_ZN9__gnu_cxx17__normal_iteratorIPKN3gmx20KeyValueTreePropertyESt6vectorIS2_SaIS2_EEEC2ERKS4_(ptr noundef nonnull align 8 dereferenceable(8) %0, ptr noundef nonnull align 8 dereferenceable(8) %1) unnamed_addr #1 comdat align 2 {
  %3 = alloca ptr, align 8
  %4 = alloca ptr, align 8
  store ptr %0, ptr %3, align 8, !tbaa !178
  store ptr %1, ptr %4, align 8, !tbaa !194
  %5 = load ptr, ptr %3, align 8
  %6 = getelementptr inbounds nuw %"class.__gnu_cxx::__normal_iterator", ptr %5, i32 0, i32 0
  %7 = load ptr, ptr %4, align 8, !tbaa !194
  %8 = load ptr, ptr %7, align 8, !tbaa !84
  store ptr %8, ptr %6, align 8, !tbaa !180
  ret void
}

; Function Attrs: mustprogress nounwind uwtable
define linkonce_odr noundef nonnull align 8 dereferenceable(8) ptr @_ZN9__gnu_cxx17__normal_iteratorIPKN3gmx20KeyValueTreePropertyESt6vectorIS2_SaIS2_EEEppEv(ptr noundef nonnull align 8 dereferenceable(8) %0) #1 comdat align 2 {
  %2 = alloca ptr, align 8
  store ptr %0, ptr %2, align 8, !tbaa !178
  %3 = load ptr, ptr %2, align 8
  %4 = getelementptr inbounds nuw %"class.__gnu_cxx::__normal_iterator", ptr %3, i32 0, i32 0
  %5 = load ptr, ptr %4, align 8, !tbaa !180
  %6 = getelementptr inbounds nuw %"class.gmx::KeyValueTreeProperty", ptr %5, i32 1
  store ptr %6, ptr %4, align 8, !tbaa !180
  ret ptr %3
}

; Function Attrs: mustprogress nounwind uwtable
define linkonce_odr noundef nonnull align 8 dereferenceable(8) ptr @_ZNK3gmx20KeyValueTreeProperty5valueEv(ptr noundef nonnull align 8 dereferenceable(8) %0) #1 comdat align 2 {
  %2 = alloca ptr, align 8
  store ptr %0, ptr %2, align 8, !tbaa !84
  %3 = load ptr, ptr %2, align 8
  %4 = getelementptr inbounds nuw %"class.gmx::KeyValueTreeProperty", ptr %3, i32 0, i32 0
  %5 = call noundef ptr @_ZNKSt23_Rb_tree_const_iteratorISt4pairIKNSt7__cxx1112basic_stringIcSt11char_traitsIcESaIcEEEN3gmx17KeyValueTreeValueEEEptEv(ptr noundef nonnull align 8 dereferenceable(8) %4) #2
  %6 = getelementptr inbounds nuw %"struct.std::pair.43", ptr %5, i32 0, i32 1
  ret ptr %6
}

; Function Attrs: mustprogress nounwind uwtable
define linkonce_odr noundef nonnull align 8 dereferenceable(32) ptr @_ZNK3gmx20KeyValueTreeProperty3keyB5cxx11Ev(ptr noundef nonnull align 8 dereferenceable(8) %0) #1 comdat align 2 {
  %2 = alloca ptr, align 8
  store ptr %0, ptr %2, align 8, !tbaa !84
  %3 = load ptr, ptr %2, align 8
  %4 = getelementptr inbounds nuw %"class.gmx::KeyValueTreeProperty", ptr %3, i32 0, i32 0
  %5 = call noundef ptr @_ZNKSt23_Rb_tree_const_iteratorISt4pairIKNSt7__cxx1112basic_stringIcSt11char_traitsIcESaIcEEEN3gmx17KeyValueTreeValueEEEptEv(ptr noundef nonnull align 8 dereferenceable(8) %4) #2
  %6 = getelementptr inbounds nuw %"struct.std::pair.43", ptr %5, i32 0, i32 0
  ret ptr %6
}

; Function Attrs: mustprogress nounwind uwtable
define linkonce_odr noundef nonnull align 8 dereferenceable(8) ptr @_ZNK9__gnu_cxx17__normal_iteratorIPKN3gmx20KeyValueTreePropertyESt6vectorIS2_SaIS2_EEEdeEv(ptr noundef nonnull align 8 dereferenceable(8) %0) #1 comdat align 2 {
  %2 = alloca ptr, align 8
  store ptr %0, ptr %2, align 8, !tbaa !178
  %3 = load ptr, ptr %2, align 8
  %4 = getelementptr inbounds nuw %"class.__gnu_cxx::__normal_iterator", ptr %3, i32 0, i32 0
  %5 = load ptr, ptr %4, align 8, !tbaa !180
  ret ptr %5
}

; Function Attrs: inlinehint mustprogress nounwind uwtable
define linkonce_odr noundef zeroext i1 @_ZN9__gnu_cxxneIPKN3gmx20KeyValueTreePropertyESt6vectorIS2_SaIS2_EEEEbRKNS_17__normal_iteratorIT_T0_EESD_(ptr noundef nonnull align 8 dereferenceable(8) %0, ptr noundef nonnull align 8 dereferenceable(8) %1) #9 comdat {
  %3 = alloca ptr, align 8
  %4 = alloca ptr, align 8
  store ptr %0, ptr %3, align 8, !tbaa !178
  store ptr %1, ptr %4, align 8, !tbaa !178
  %5 = load ptr, ptr %3, align 8, !tbaa !178
  %6 = call noundef nonnull align 8 dereferenceable(8) ptr @_ZNK9__gnu_cxx17__normal_iteratorIPKN3gmx20KeyValueTreePropertyESt6vectorIS2_SaIS2_EEE4baseEv(ptr noundef nonnull align 8 dereferenceable(8) %5) #2
  %7 = load ptr, ptr %6, align 8, !tbaa !84
  %8 = load ptr, ptr %4, align 8, !tbaa !178
  %9 = call noundef nonnull align 8 dereferenceable(8) ptr @_ZNK9__gnu_cxx17__normal_iteratorIPKN3gmx20KeyValueTreePropertyESt6vectorIS2_SaIS2_EEE4baseEv(ptr noundef nonnull align 8 dereferenceable(8) %8) #2
  %10 = load ptr, ptr %9, align 8, !tbaa !84
  %11 = icmp ne ptr %7, %10
  ret i1 %11
}

; Function Attrs: mustprogress nounwind uwtable
define linkonce_odr ptr @_ZNKSt6vectorIN3gmx20KeyValueTreePropertyESaIS1_EE3endEv(ptr noundef nonnull align 8 dereferenceable(24) %0) #1 comdat align 2 {
  %2 = alloca %"class.__gnu_cxx::__normal_iterator", align 8
  %3 = alloca ptr, align 8
  store ptr %0, ptr %3, align 8, !tbaa !82
  %4 = load ptr, ptr %3, align 8
  %5 = getelementptr inbounds nuw %"struct.std::_Vector_base", ptr %4, i32 0, i32 0
  %6 = getelementptr inbounds nuw %"struct.std::_Vector_base<gmx::KeyValueTreeProperty, std::allocator<gmx::KeyValueTreeProperty>>::_Vector_impl_data", ptr %5, i32 0, i32 1
  call void @_ZN9__gnu_cxx17__normal_iteratorIPKN3gmx20KeyValueTreePropertyESt6vectorIS2_SaIS2_EEEC2ERKS4_(ptr noundef nonnull align 8 dereferenceable(8) %2, ptr noundef nonnull align 8 dereferenceable(8) %6) #2
  %7 = getelementptr inbounds nuw %"class.__gnu_cxx::__normal_iterator", ptr %2, i32 0, i32 0
  %8 = load ptr, ptr %7, align 8
  ret ptr %8
}

; Function Attrs: mustprogress nounwind uwtable
define linkonce_odr ptr @_ZNKSt6vectorIN3gmx20KeyValueTreePropertyESaIS1_EE5beginEv(ptr noundef nonnull align 8 dereferenceable(24) %0) #1 comdat align 2 {
  %2 = alloca %"class.__gnu_cxx::__normal_iterator", align 8
  %3 = alloca ptr, align 8
  store ptr %0, ptr %3, align 8, !tbaa !82
  %4 = load ptr, ptr %3, align 8
  %5 = getelementptr inbounds nuw %"struct.std::_Vector_base", ptr %4, i32 0, i32 0
  %6 = getelementptr inbounds nuw %"struct.std::_Vector_base<gmx::KeyValueTreeProperty, std::allocator<gmx::KeyValueTreeProperty>>::_Vector_impl_data", ptr %5, i32 0, i32 0
  call void @_ZN9__gnu_cxx17__normal_iteratorIPKN3gmx20KeyValueTreePropertyESt6vectorIS2_SaIS2_EEEC2ERKS4_(ptr noundef nonnull align 8 dereferenceable(8) %2, ptr noundef nonnull align 8 dereferenceable(8) %6) #2
  %7 = getelementptr inbounds nuw %"class.__gnu_cxx::__normal_iterator", ptr %2, i32 0, i32 0
  %8 = load ptr, ptr %7, align 8
  ret ptr %8
}

; Function Attrs: mustprogress nounwind uwtable
define linkonce_odr noundef i64 @_ZNKSt6vectorIN3gmx20KeyValueTreePropertyESaIS1_EE4sizeEv(ptr noundef nonnull align 8 dereferenceable(24) %0) #1 comdat align 2 {
  %2 = alloca ptr, align 8
  store ptr %0, ptr %2, align 8, !tbaa !82
  %3 = load ptr, ptr %2, align 8
  %4 = getelementptr inbounds nuw %"struct.std::_Vector_base", ptr %3, i32 0, i32 0
  %5 = getelementptr inbounds nuw %"struct.std::_Vector_base<gmx::KeyValueTreeProperty, std::allocator<gmx::KeyValueTreeProperty>>::_Vector_impl_data", ptr %4, i32 0, i32 1
  %6 = load ptr, ptr %5, align 8, !tbaa !169
  %7 = getelementptr inbounds nuw %"struct.std::_Vector_base", ptr %3, i32 0, i32 0
  %8 = getelementptr inbounds nuw %"struct.std::_Vector_base<gmx::KeyValueTreeProperty, std::allocator<gmx::KeyValueTreeProperty>>::_Vector_impl_data", ptr %7, i32 0, i32 0
  %9 = load ptr, ptr %8, align 8, !tbaa !167
  %10 = ptrtoint ptr %6 to i64
  %11 = ptrtoint ptr %9 to i64
  %12 = sub i64 %10, %11
  %13 = sdiv exact i64 %12, 8
  ret i64 %13
}

; Function Attrs: mustprogress nounwind uwtable
define linkonce_odr noundef nonnull align 8 dereferenceable(24) ptr @_ZNK3gmx18KeyValueTreeObject10propertiesEv(ptr noundef nonnull align 8 dereferenceable(72) %0) #1 comdat align 2 {
  %2 = alloca ptr, align 8
  store ptr %0, ptr %2, align 8, !tbaa !62
  %3 = load ptr, ptr %2, align 8
  %4 = getelementptr inbounds nuw %"class.gmx::KeyValueTreeObject", ptr %3, i32 0, i32 1
  ret ptr %4
}

; Function Attrs: mustprogress uwtable
define internal void @_ZN3gmx12_GLOBAL__N_119SerializationTraitsINS_18KeyValueTreeObjectEE9serializeERKS2_PNS_11ISerializerE(ptr noundef nonnull align 8 dereferenceable(72) %0, ptr noundef %1) #4 align 2 {
  %3 = alloca ptr, align 8
  %4 = alloca ptr, align 8
  %5 = alloca i32, align 4
  %6 = alloca ptr, align 8
  %7 = alloca %"class.__gnu_cxx::__normal_iterator", align 8
  %8 = alloca %"class.__gnu_cxx::__normal_iterator", align 8
  %9 = alloca ptr, align 8
  store ptr %0, ptr %3, align 8, !tbaa !62
  store ptr %1, ptr %4, align 8, !tbaa !64
  call void @llvm.lifetime.start.p0(i64 4, ptr %5) #2
  %10 = load ptr, ptr %3, align 8, !tbaa !62
  %11 = call noundef nonnull align 8 dereferenceable(24) ptr @_ZNK3gmx18KeyValueTreeObject10propertiesEv(ptr noundef nonnull align 8 dereferenceable(72) %10)
  %12 = call noundef i64 @_ZNKSt6vectorIN3gmx20KeyValueTreePropertyESaIS1_EE4sizeEv(ptr noundef nonnull align 8 dereferenceable(24) %11) #2
  %13 = trunc i64 %12 to i32
  store i32 %13, ptr %5, align 4, !tbaa !80
  %14 = load ptr, ptr %4, align 8, !tbaa !64
  %15 = load ptr, ptr %14, align 8, !tbaa !66
  %16 = getelementptr inbounds ptr, ptr %15, i64 7
  %17 = load ptr, ptr %16, align 8
  call void %17(ptr noundef nonnull align 8 dereferenceable(8) %14, ptr noundef %5)
  call void @llvm.lifetime.start.p0(i64 8, ptr %6) #2
  %18 = load ptr, ptr %3, align 8, !tbaa !62
  %19 = call noundef nonnull align 8 dereferenceable(24) ptr @_ZNK3gmx18KeyValueTreeObject10propertiesEv(ptr noundef nonnull align 8 dereferenceable(72) %18)
  store ptr %19, ptr %6, align 8, !tbaa !82
  call void @llvm.lifetime.start.p0(i64 8, ptr %7) #2
  %20 = load ptr, ptr %6, align 8, !tbaa !82
  %21 = call ptr @_ZNKSt6vectorIN3gmx20KeyValueTreePropertyESaIS1_EE5beginEv(ptr noundef nonnull align 8 dereferenceable(24) %20) #2
  %22 = getelementptr inbounds nuw %"class.__gnu_cxx::__normal_iterator", ptr %7, i32 0, i32 0
  store ptr %21, ptr %22, align 8
  call void @llvm.lifetime.start.p0(i64 8, ptr %8) #2
  %23 = load ptr, ptr %6, align 8, !tbaa !82
  %24 = call ptr @_ZNKSt6vectorIN3gmx20KeyValueTreePropertyESaIS1_EE3endEv(ptr noundef nonnull align 8 dereferenceable(24) %23) #2
  %25 = getelementptr inbounds nuw %"class.__gnu_cxx::__normal_iterator", ptr %8, i32 0, i32 0
  store ptr %24, ptr %25, align 8
  br label %26

26:                                               ; preds = %40, %2
  %27 = call noundef zeroext i1 @_ZN9__gnu_cxxneIPKN3gmx20KeyValueTreePropertyESt6vectorIS2_SaIS2_EEEEbRKNS_17__normal_iteratorIT_T0_EESD_(ptr noundef nonnull align 8 dereferenceable(8) %7, ptr noundef nonnull align 8 dereferenceable(8) %8) #2
  br i1 %27, label %29, label %28

28:                                               ; preds = %26
  call void @llvm.lifetime.end.p0(i64 8, ptr %8) #2
  call void @llvm.lifetime.end.p0(i64 8, ptr %7) #2
  call void @llvm.lifetime.end.p0(i64 8, ptr %6) #2
  br label %42

29:                                               ; preds = %26
  call void @llvm.lifetime.start.p0(i64 8, ptr %9) #2
  %30 = call noundef nonnull align 8 dereferenceable(8) ptr @_ZNK9__gnu_cxx17__normal_iteratorIPKN3gmx20KeyValueTreePropertyESt6vectorIS2_SaIS2_EEEdeEv(ptr noundef nonnull align 8 dereferenceable(8) %7) #2
  store ptr %30, ptr %9, align 8, !tbaa !84
  %31 = load ptr, ptr %4, align 8, !tbaa !64
  %32 = load ptr, ptr %9, align 8, !tbaa !84
  %33 = call noundef nonnull align 8 dereferenceable(32) ptr @_ZNK3gmx20KeyValueTreeProperty3keyB5cxx11Ev(ptr noundef nonnull align 8 dereferenceable(8) %32)
  %34 = load ptr, ptr %31, align 8, !tbaa !66
  %35 = getelementptr inbounds ptr, ptr %34, i64 15
  %36 = load ptr, ptr %35, align 8
  call void %36(ptr noundef nonnull align 8 dereferenceable(8) %31, ptr noundef %33)
  %37 = load ptr, ptr %9, align 8, !tbaa !84
  %38 = call noundef nonnull align 8 dereferenceable(8) ptr @_ZNK3gmx20KeyValueTreeProperty5valueEv(ptr noundef nonnull align 8 dereferenceable(8) %37)
  %39 = load ptr, ptr %4, align 8, !tbaa !64
  call void @_ZN3gmx12_GLOBAL__N_115ValueSerializer9serializeERKNS_17KeyValueTreeValueEPNS_11ISerializerE(ptr noundef nonnull align 8 dereferenceable(8) %38, ptr noundef %39)
  call void @llvm.lifetime.end.p0(i64 8, ptr %9) #2
  br label %40

40:                                               ; preds = %29
  %41 = call noundef nonnull align 8 dereferenceable(8) ptr @_ZN9__gnu_cxx17__normal_iteratorIPKN3gmx20KeyValueTreePropertyESt6vectorIS2_SaIS2_EEEppEv(ptr noundef nonnull align 8 dereferenceable(8) %7) #2
  br label %26

42:                                               ; preds = %28
  call void @llvm.lifetime.end.p0(i64 4, ptr %5) #2
  ret void
}

; Function Attrs: inlinehint mustprogress uwtable
define internal void @"_ZZN3gmx21serializeKeyValueTreeERKNS_18KeyValueTreeObjectEPNS_11ISerializerEENK3$_0clEv"(ptr noundef nonnull align 1 dereferenceable(1) %0) #7 align 2 {
  %2 = alloca ptr, align 8
  store ptr %0, ptr %2, align 8, !tbaa !68
  call void @_ZN3gmx8internal13assertHandlerEPKcS2_S2_S2_i(ptr noundef @.str, ptr noundef @.str.2, ptr noundef @"__PRETTY_FUNCTION__._ZZN3gmx21serializeKeyValueTreeERKNS_18KeyValueTreeObjectEPNS_11ISerializerEENK3$_0clEv", ptr noundef @.str.3, i32 noundef 321) #21
  unreachable
}

; Function Attrs: mustprogress uwtable
define void @_ZN3gmx21serializeKeyValueTreeERKNS_18KeyValueTreeObjectEPNS_11ISerializerE(ptr noundef nonnull align 8 dereferenceable(72) %0, ptr noundef %1) #4 {
  %3 = alloca ptr, align 8
  %4 = alloca ptr, align 8
  %5 = alloca %class.anon, align 1
  store ptr %0, ptr %3, align 8, !tbaa !62
  store ptr %1, ptr %4, align 8, !tbaa !64
  %6 = load ptr, ptr %4, align 8, !tbaa !64
  %7 = load ptr, ptr %6, align 8, !tbaa !66
  %8 = getelementptr inbounds ptr, ptr %7, i64 2
  %9 = load ptr, ptr %8, align 8
  %10 = call noundef zeroext i1 %9(ptr noundef nonnull align 8 dereferenceable(8) %6)
  call void @llvm.lifetime.start.p0(i64 1, ptr %5) #2
  br i1 %10, label %12, label %11

11:                                               ; preds = %2
  br label %13

12:                                               ; preds = %2
  call void @"_ZZN3gmx21serializeKeyValueTreeERKNS_18KeyValueTreeObjectEPNS_11ISerializerEENK3$_0clEv"(ptr noundef nonnull align 1 dereferenceable(1) %5)
  br label %13

13:                                               ; preds = %12, %11
  call void @llvm.lifetime.end.p0(i64 1, ptr %5) #2
  call void @_ZN3gmx12_GLOBAL__N_115ValueSerializer15initSerializersEv()
  %14 = load ptr, ptr %3, align 8, !tbaa !62
  %15 = load ptr, ptr %4, align 8, !tbaa !64
  call void @_ZN3gmx12_GLOBAL__N_119SerializationTraitsINS_18KeyValueTreeObjectEE9serializeERKS2_PNS_11ISerializerE(ptr noundef nonnull align 8 dereferenceable(72) %14, ptr noundef %15)
  ret void
}