; Function Attrs: mustprogress uwtable
define void @_ZN3gmx21serializeKeyValueTreeERKNS_18KeyValueTreeObjectEPNS_11ISerializerE(ptr noundef nonnull readonly align 8 captures(none) dereferenceable(72) %0, ptr noundef %1) local_unnamed_addr #6 {
  %3 = alloca i32, align 4
  %4 = load ptr, ptr %1, align 8, !tbaa !18
  %5 = getelementptr inbounds nuw i8, ptr %4, i64 16
  %6 = load ptr, ptr %5, align 8
  %7 = tail call noundef zeroext i1 %6(ptr noundef nonnull align 8 dereferenceable(8) %1)
  br i1 %7, label %8, label %9

8:                                                ; preds = %2
  tail call void @_ZN3gmx8internal13assertHandlerEPKcS2_S2_S2_i(ptr noundef nonnull @.str, ptr noundef nonnull @.str.2, ptr noundef nonnull @"__PRETTY_FUNCTION__._ZZN3gmx21serializeKeyValueTreeERKNS_18KeyValueTreeObjectEPNS_11ISerializerEENK3$_0clEv", ptr noundef nonnull @.str.3, i32 noundef 321) #24
  unreachable

9:                                                ; preds = %2
  tail call fastcc void @_ZN3gmx12_GLOBAL__N_115ValueSerializer15initSerializersEv()
  call void @llvm.lifetime.start.p0(i64 4, ptr nonnull %3) #21
  %10 = getelementptr inbounds nuw i8, ptr %0, i64 48
  %11 = getelementptr inbounds nuw i8, ptr %0, i64 56
  %12 = load ptr, ptr %11, align 8, !tbaa !20
  %13 = load ptr, ptr %10, align 8, !tbaa !23
  %14 = ptrtoint ptr %12 to i64
  %15 = ptrtoint ptr %13 to i64
  %16 = sub i64 %14, %15
  %17 = lshr exact i64 %16, 3
  %18 = trunc i64 %17 to i32
  store i32 %18, ptr %3, align 4, !tbaa !24
  %19 = load ptr, ptr %1, align 8, !tbaa !18
  %20 = getelementptr inbounds nuw i8, ptr %19, i64 56
  %21 = load ptr, ptr %20, align 8
  call void %21(ptr noundef nonnull align 8 dereferenceable(8) %1, ptr noundef nonnull %3)
  %22 = load ptr, ptr %10, align 8, !tbaa !26
  %23 = load ptr, ptr %11, align 8, !tbaa !26
  %.not12.i = icmp eq ptr %22, %23
  br i1 %.not12.i, label %_ZN3gmx12_GLOBAL__N_119SerializationTraitsINS_18KeyValueTreeObjectEE9serializeERKS2_PNS_11ISerializerE.exit, label %.lr.ph.i

.lr.ph.i:                                         ; preds = %9, %.lr.ph.i
  %.sroa.09.013.i = phi ptr [ %31, %.lr.ph.i ], [ %22, %9 ]
  %24 = load ptr, ptr %.sroa.09.013.i, align 8, !tbaa !27
  %25 = getelementptr inbounds nuw i8, ptr %24, i64 32
  %26 = load ptr, ptr %1, align 8, !tbaa !18
  %27 = getelementptr inbounds nuw i8, ptr %26, i64 120
  %28 = load ptr, ptr %27, align 8
  call void %28(ptr noundef nonnull align 8 dereferenceable(8) %1, ptr noundef nonnull %25)
  %29 = load ptr, ptr %.sroa.09.013.i, align 8, !tbaa !27
  %30 = getelementptr inbounds nuw i8, ptr %29, i64 64
  call fastcc void @_ZN3gmx12_GLOBAL__N_115ValueSerializer9serializeERKNS_17KeyValueTreeValueEPNS_11ISerializerE(ptr noundef nonnull align 8 dereferenceable(8) %30, ptr noundef nonnull %1)
  %31 = getelementptr inbounds nuw i8, ptr %.sroa.09.013.i, i64 8
  %.not.i = icmp eq ptr %31, %23
  br i1 %.not.i, label %_ZN3gmx12_GLOBAL__N_119SerializationTraitsINS_18KeyValueTreeObjectEE9serializeERKS2_PNS_11ISerializerE.exit, label %.lr.ph.i

_ZN3gmx12_GLOBAL__N_119SerializationTraitsINS_18KeyValueTreeObjectEE9serializeERKS2_PNS_11ISerializerE.exit: ; preds = %.lr.ph.i, %9
  call void @llvm.lifetime.end.p0(i64 4, ptr nonnull %3) #21
  ret void
}